;
; Definition file of libasmjit.dll
; Automatic generated by gendef
; written by Kai Tietz 2008
;
LIBRARY "libasmjit.dll"
EXPORTS
_ZN6asmjit10CodeHolder10growBufferEPNS_10CodeBufferEy
_ZN6asmjit10CodeHolder10newSectionEPPNS_7SectionEPKcyjji
_ZN6asmjit10CodeHolder12newLabelLinkEPNS_10LabelEntryEjyxRKNS_12OffsetFormatE
_ZN6asmjit10CodeHolder13labelIdByNameEPKcyj
_ZN6asmjit10CodeHolder13newLabelEntryEPPNS_10LabelEntryE
_ZN6asmjit10CodeHolder13newRelocEntryEPPNS_10RelocEntryEj
_ZN6asmjit10CodeHolder13reserveBufferEPNS_10CodeBufferEy
_ZN6asmjit10CodeHolder14relocateToBaseEy
_ZN6asmjit10CodeHolder15copySectionDataEPvyjj
_ZN6asmjit10CodeHolder15setErrorHandlerEPNS_12ErrorHandlerE
_ZN6asmjit10CodeHolder17copyFlattenedDataEPvyj
_ZN6asmjit10CodeHolder18newNamedLabelEntryEPPNS_10LabelEntryEPKcyjj
_ZN6asmjit10CodeHolder22resolveUnresolvedLinksEv
_ZN6asmjit10CodeHolder24addAddressToAddressTableEy
_ZN6asmjit10CodeHolder25ensureAddressTableSectionEv
_ZN6asmjit10CodeHolder4initERKNS_11EnvironmentEy
_ZN6asmjit10CodeHolder5resetEj
_ZN6asmjit10CodeHolder6attachEPNS_11BaseEmitterE
_ZN6asmjit10CodeHolder6detachEPNS_11BaseEmitterE
_ZN6asmjit10CodeHolder7flattenEv
_ZN6asmjit10CodeHolder9bindLabelERKNS_5LabelEjy
_ZN6asmjit10CodeHolder9setLoggerEPNS_6LoggerE
_ZN6asmjit10CodeHolderC1Ev
_ZN6asmjit10CodeHolderC2Ev
_ZN6asmjit10CodeHolderD1Ev
_ZN6asmjit10CodeHolderD2Ev
_ZN6asmjit10DebugUtils11debugOutputEPKc
_ZN6asmjit10DebugUtils13errorAsStringEj
_ZN6asmjit10DebugUtils15assertionFailedEPKciS2_
_ZN6asmjit10FileLogger4_logEPKcy
_ZN6asmjit10FileLoggerC1EP6_iobuf
_ZN6asmjit10FileLoggerC2EP6_iobuf
_ZN6asmjit10FileLoggerD0Ev
_ZN6asmjit10FileLoggerD1Ev
_ZN6asmjit10FileLoggerD2Ev
_ZN6asmjit10FuncDetail4initERKNS_13FuncSignatureERKNS_11EnvironmentE
_ZN6asmjit10JitRuntime4_addEPPvPNS_10CodeHolderE
_ZN6asmjit10JitRuntime5flushEPKvy
_ZN6asmjit10JitRuntime8_releaseEPv
_ZN6asmjit10JitRuntimeC1EPKNS_12JitAllocator12CreateParamsE
_ZN6asmjit10JitRuntimeC2EPKNS_12JitAllocator12CreateParamsE
_ZN6asmjit10JitRuntimeD0Ev
_ZN6asmjit10JitRuntimeD1Ev
_ZN6asmjit10JitRuntimeD2Ev
_ZN6asmjit11BaseBuilder10deletePassEPNS_4PassE
_ZN6asmjit11BaseBuilder10embedLabelERKNS_5LabelEy
_ZN6asmjit11BaseBuilder10removeNodeEPNS_8BaseNodeE
_ZN6asmjit11BaseBuilder11labelNodeOfEPPNS_9LabelNodeEj
_ZN6asmjit11BaseBuilder11removeNodesEPNS_8BaseNodeES2_
_ZN6asmjit11BaseBuilder11serializeToEPNS_11BaseEmitterE
_ZN6asmjit11BaseBuilder12_newInstNodeEPPNS_8InstNodeEjjj
_ZN6asmjit11BaseBuilder13_newAlignNodeEPPNS_9AlignNodeEjj
_ZN6asmjit11BaseBuilder13_newLabelNodeEPPNS_9LabelNodeE
_ZN6asmjit11BaseBuilder13newNamedLabelEPKcyjj
_ZN6asmjit11BaseBuilder13sectionNodeOfEPPNS_11SectionNodeEj
_ZN6asmjit11BaseBuilder14embedConstPoolERKNS_5LabelERKNS_9ConstPoolE
_ZN6asmjit11BaseBuilder14embedDataArrayEjPKvyy
_ZN6asmjit11BaseBuilder15_newCommentNodeEPPNS_11CommentNodeEPKcy
_ZN6asmjit11BaseBuilder15embedLabelDeltaERKNS_5LabelES3_y
_ZN6asmjit11BaseBuilder17_newConstPoolNodeEPPNS_13ConstPoolNodeE
_ZN6asmjit11BaseBuilder17_newEmbedDataNodeEPPNS_13EmbedDataNodeEjPKvyy
_ZN6asmjit11BaseBuilder17registerLabelNodeEPNS_9LabelNodeE
_ZN6asmjit11BaseBuilder18updateSectionLinksEv
_ZN6asmjit11BaseBuilder4bindERKNS_5LabelE
_ZN6asmjit11BaseBuilder5_emitEjRKNS_8Operand_ES3_S3_PS2_
_ZN6asmjit11BaseBuilder5alignEjj
_ZN6asmjit11BaseBuilder5embedEPKvy
_ZN6asmjit11BaseBuilder7addNodeEPNS_8BaseNodeE
_ZN6asmjit11BaseBuilder7addPassEPNS_4PassE
_ZN6asmjit11BaseBuilder7commentEPKcy
_ZN6asmjit11BaseBuilder7sectionEPNS_7SectionE
_ZN6asmjit11BaseBuilder8addAfterEPNS_8BaseNodeES2_
_ZN6asmjit11BaseBuilder8newLabelEv
_ZN6asmjit11BaseBuilder8onAttachEPNS_10CodeHolderE
_ZN6asmjit11BaseBuilder8onDetachEPNS_10CodeHolderE
_ZN6asmjit11BaseBuilder9addBeforeEPNS_8BaseNodeES2_
_ZN6asmjit11BaseBuilder9runPassesEv
_ZN6asmjit11BaseBuilder9setCursorEPNS_8BaseNodeE
_ZN6asmjit11BaseBuilderC1Ev
_ZN6asmjit11BaseBuilderC2Ev
_ZN6asmjit11BaseBuilderD0Ev
_ZN6asmjit11BaseBuilderD1Ev
_ZN6asmjit11BaseBuilderD2Ev
_ZN6asmjit11BaseEmitter10emitEpilogERKNS_9FuncFrameE
_ZN6asmjit11BaseEmitter10emitPrologERKNS_9FuncFrameE
_ZN6asmjit11BaseEmitter11labelByNameEPKcyj
_ZN6asmjit11BaseEmitter11reportErrorEjPKc
_ZN6asmjit11BaseEmitter12_emitOpArrayEjPKNS_8Operand_Ey
_ZN6asmjit11BaseEmitter15setErrorHandlerEPNS_12ErrorHandlerE
_ZN6asmjit11BaseEmitter17onSettingsUpdatedEv
_ZN6asmjit11BaseEmitter18emitArgsAssignmentERKNS_9FuncFrameERKNS_18FuncArgsAssignmentE
_ZN6asmjit11BaseEmitter20addValidationOptionsEj
_ZN6asmjit11BaseEmitter22clearValidationOptionsEj
_ZN6asmjit11BaseEmitter6_emitIEj
_ZN6asmjit11BaseEmitter6_emitIEjRKNS_8Operand_E
_ZN6asmjit11BaseEmitter6_emitIEjRKNS_8Operand_ES3_
_ZN6asmjit11BaseEmitter6_emitIEjRKNS_8Operand_ES3_S3_
_ZN6asmjit11BaseEmitter6_emitIEjRKNS_8Operand_ES3_S3_S3_
_ZN6asmjit11BaseEmitter6_emitIEjRKNS_8Operand_ES3_S3_S3_S3_
_ZN6asmjit11BaseEmitter6_emitIEjRKNS_8Operand_ES3_S3_S3_S3_S3_
_ZN6asmjit11BaseEmitter8commentfEPKcz
_ZN6asmjit11BaseEmitter8commentvEPKcPc
_ZN6asmjit11BaseEmitter8finalizeEv
_ZN6asmjit11BaseEmitter9setLoggerEPNS_6LoggerE
_ZN6asmjit11BaseEmitterC1Ej
_ZN6asmjit11BaseEmitterC2Ej
_ZN6asmjit11BaseEmitterD0Ev
_ZN6asmjit11BaseEmitterD1Ev
_ZN6asmjit11BaseEmitterD2Ev
_ZN6asmjit11_archTraitsE DATA
_ZN6asmjit12BaseCompiler10_newRegFmtEPNS_7BaseRegERKS1_PKcz
_ZN6asmjit12BaseCompiler10_newRegFmtEPNS_7BaseRegEjPKcz
_ZN6asmjit12BaseCompiler10newVirtRegEPPNS_7VirtRegEjjPKc
_ZN6asmjit12BaseCompiler11_addRetNodeEPPNS_11FuncRetNodeERKNS_8Operand_ES6_
_ZN6asmjit12BaseCompiler11_newRetNodeEPPNS_11FuncRetNodeERKNS_8Operand_ES6_
_ZN6asmjit12BaseCompiler11newJumpNodeEPPNS_8JumpNodeEjjRKNS_8Operand_EPNS_14JumpAnnotationE
_ZN6asmjit12BaseCompiler12_addFuncNodeEPPNS_8FuncNodeERKNS_13FuncSignatureE
_ZN6asmjit12BaseCompiler12_newFuncNodeEPPNS_8FuncNodeERKNS_13FuncSignatureE
_ZN6asmjit12BaseCompiler12setStackSizeEjjj
_ZN6asmjit12BaseCompiler14_addInvokeNodeEPPNS_10InvokeNodeEjRKNS_8Operand_ERKNS_13FuncSignatureE
_ZN6asmjit12BaseCompiler14_newInvokeNodeEPPNS_10InvokeNodeEjRKNS_8Operand_ERKNS_13FuncSignatureE
_ZN6asmjit12BaseCompiler17emitAnnotatedJumpEjRKNS_8Operand_EPNS_14JumpAnnotationE
_ZN6asmjit12BaseCompiler17newJumpAnnotationEv
_ZN6asmjit12BaseCompiler6renameERKNS_7BaseRegEPKcz
_ZN6asmjit12BaseCompiler7_newRegEPNS_7BaseRegERKS1_PKc
_ZN6asmjit12BaseCompiler7_newRegEPNS_7BaseRegEjPKc
_ZN6asmjit12BaseCompiler7_setArgEyyRKNS_7BaseRegE
_ZN6asmjit12BaseCompiler7addFuncEPNS_8FuncNodeE
_ZN6asmjit12BaseCompiler7endFuncEv
_ZN6asmjit12BaseCompiler8onAttachEPNS_10CodeHolderE
_ZN6asmjit12BaseCompiler8onDetachEPNS_10CodeHolderE
_ZN6asmjit12BaseCompiler9_newConstEPNS_7BaseMemEjPKvy
_ZN6asmjit12BaseCompiler9_newStackEPNS_7BaseMemEjjPKc
_ZN6asmjit12BaseCompilerC1Ev
_ZN6asmjit12BaseCompilerC2Ev
_ZN6asmjit12BaseCompilerD0Ev
_ZN6asmjit12BaseCompilerD1Ev
_ZN6asmjit12BaseCompilerD2Ev
_ZN6asmjit12ErrorHandlerC1Ev
_ZN6asmjit12ErrorHandlerC2Ev
_ZN6asmjit12ErrorHandlerD0Ev
_ZN6asmjit12ErrorHandlerD1Ev
_ZN6asmjit12ErrorHandlerD2Ev
_ZN6asmjit12JitAllocator5allocEPPvS2_y
_ZN6asmjit12JitAllocator5resetEj
_ZN6asmjit12JitAllocator6shrinkEPvy
_ZN6asmjit12JitAllocator7releaseEPv
_ZN6asmjit12JitAllocatorC1EPKNS0_12CreateParamsE
_ZN6asmjit12JitAllocatorC2EPKNS0_12CreateParamsE
_ZN6asmjit12JitAllocatorD1Ev
_ZN6asmjit12JitAllocatorD2Ev
_ZN6asmjit12StringLogger4_logEPKcy
_ZN6asmjit12StringLoggerC1Ev
_ZN6asmjit12StringLoggerC2Ev
_ZN6asmjit12StringLoggerD0Ev
_ZN6asmjit12StringLoggerD1Ev
_ZN6asmjit12StringLoggerD2Ev
_ZN6asmjit12ZoneHashBase7_insertEPNS_13ZoneAllocatorEPNS_12ZoneHashNodeE
_ZN6asmjit12ZoneHashBase7_rehashEPNS_13ZoneAllocatorEj
_ZN6asmjit12ZoneHashBase7_removeEPNS_13ZoneAllocatorEPNS_12ZoneHashNodeE
_ZN6asmjit13BaseAssembler10embedLabelERKNS_5LabelEy
_ZN6asmjit13BaseAssembler13newNamedLabelEPKcyjj
_ZN6asmjit13BaseAssembler14embedConstPoolERKNS_5LabelERKNS_9ConstPoolE
_ZN6asmjit13BaseAssembler14embedDataArrayEjPKvyy
_ZN6asmjit13BaseAssembler15embedLabelDeltaERKNS_5LabelES3_y
_ZN6asmjit13BaseAssembler4bindERKNS_5LabelE
_ZN6asmjit13BaseAssembler5embedEPKvy
_ZN6asmjit13BaseAssembler7commentEPKcy
_ZN6asmjit13BaseAssembler7sectionEPNS_7SectionE
_ZN6asmjit13BaseAssembler8newLabelEv
_ZN6asmjit13BaseAssembler8onAttachEPNS_10CodeHolderE
_ZN6asmjit13BaseAssembler8onDetachEPNS_10CodeHolderE
_ZN6asmjit13BaseAssembler9setOffsetEy
_ZN6asmjit13BaseAssemblerC1Ev
_ZN6asmjit13BaseAssemblerC2Ev
_ZN6asmjit13BaseAssemblerD0Ev
_ZN6asmjit13BaseAssemblerD1Ev
_ZN6asmjit13BaseAssemblerD2Ev
_ZN6asmjit13ZoneAllocator12_allocZeroedEyRy
_ZN6asmjit13ZoneAllocator15_releaseDynamicEPvy
_ZN6asmjit13ZoneAllocator5resetEPNS_4ZoneE
_ZN6asmjit13ZoneAllocator6_allocEyRy
_ZN6asmjit13ZoneBitVector7_appendEPNS_13ZoneAllocatorEb
_ZN6asmjit13ZoneBitVector7_resizeEPNS_13ZoneAllocatorEjjb
_ZN6asmjit13ZoneBitVector8copyFromEPNS_13ZoneAllocatorERKS0_
_ZN6asmjit13ZoneStackBase13_cleanupBlockEjy
_ZN6asmjit13ZoneStackBase13_prepareBlockEjy
_ZN6asmjit13ZoneStackBase5_initEPNS_13ZoneAllocatorEy
_ZN6asmjit14ZoneVectorBase5_growEPNS_13ZoneAllocatorEjj
_ZN6asmjit14ZoneVectorBase7_resizeEPNS_13ZoneAllocatorEjj
_ZN6asmjit14ZoneVectorBase8_reserveEPNS_13ZoneAllocatorEjj
_ZN6asmjit3x866InstDB14_instInfoTableE DATA
_ZN6asmjit3x866InstDB16_commonInfoTableE DATA
_ZN6asmjit3x866InstDB17_opSignatureTableE DATA
_ZN6asmjit3x866InstDB19_instSignatureTableE DATA
_ZN6asmjit3x867Builder8finalizeEv
_ZN6asmjit3x867Builder8onAttachEPNS_10CodeHolderE
_ZN6asmjit3x867BuilderC1EPNS_10CodeHolderE
_ZN6asmjit3x867BuilderC2EPNS_10CodeHolderE
_ZN6asmjit3x867BuilderD0Ev
_ZN6asmjit3x867BuilderD1Ev
_ZN6asmjit3x867BuilderD2Ev
_ZN6asmjit3x868Compiler8finalizeEv
_ZN6asmjit3x868Compiler8onAttachEPNS_10CodeHolderE
_ZN6asmjit3x868CompilerC1EPNS_10CodeHolderE
_ZN6asmjit3x868CompilerC2EPNS_10CodeHolderE
_ZN6asmjit3x868CompilerD0Ev
_ZN6asmjit3x868CompilerD1Ev
_ZN6asmjit3x868CompilerD2Ev
_ZN6asmjit3x869Assembler5_emitEjRKNS_8Operand_ES4_S4_PS3_
_ZN6asmjit3x869Assembler5alignEjj
_ZN6asmjit3x869Assembler8onAttachEPNS_10CodeHolderE
_ZN6asmjit3x869Assembler8onDetachEPNS_10CodeHolderE
_ZN6asmjit3x869AssemblerC1EPNS_10CodeHolderE
_ZN6asmjit3x869AssemblerC2EPNS_10CodeHolderE
_ZN6asmjit3x869AssemblerD0Ev
_ZN6asmjit3x869AssemblerD1Ev
_ZN6asmjit3x869AssemblerD2Ev
_ZN6asmjit4PassC1EPKc
_ZN6asmjit4PassC2EPKc
_ZN6asmjit4PassD0Ev
_ZN6asmjit4PassD1Ev
_ZN6asmjit4PassD2Ev
_ZN6asmjit4Type9_typeDataE DATA
_ZN6asmjit4Zone10_zeroBlockE DATA
_ZN6asmjit4Zone11allocZeroedEyy
_ZN6asmjit4Zone3dupEPKvyb
_ZN6asmjit4Zone5_initEyyPKNS_7Support9TemporaryE
_ZN6asmjit4Zone5resetEj
_ZN6asmjit4Zone6_allocEyy
_ZN6asmjit4Zone7sformatEPKcz
_ZN6asmjit6Logger4logfEPKcz
_ZN6asmjit6Logger4logvEPKcPc
_ZN6asmjit6LoggerC1Ev
_ZN6asmjit6LoggerC2Ev
_ZN6asmjit6LoggerD0Ev
_ZN6asmjit6LoggerD1Ev
_ZN6asmjit6LoggerD2Ev
_ZN6asmjit6String10_opVFormatEjPKcPc
_ZN6asmjit6String5clearEv
_ZN6asmjit6String5resetEv
_ZN6asmjit6String6_opHexEjPKvyc
_ZN6asmjit6String6assignEPKcy
_ZN6asmjit6String6padEndEyc
_ZN6asmjit6String7_opCharEjc
_ZN6asmjit6String7prepareEjy
_ZN6asmjit6String8_opCharsEjcy
_ZN6asmjit6String8truncateEy
_ZN6asmjit6String9_opFormatEjPKcz
_ZN6asmjit6String9_opNumberEjyjyj
_ZN6asmjit6String9_opStringEjPKcy
_ZN6asmjit6TargetC1Ev
_ZN6asmjit6TargetC2Ev
_ZN6asmjit6TargetD0Ev
_ZN6asmjit6TargetD1Ev
_ZN6asmjit6TargetD2Ev
_ZN6asmjit7CpuInfo4hostEv
_ZN6asmjit7InstAPI11queryRWInfoEjRKNS_8BaseInstEPKNS_8Operand_EyPNS_10InstRWInfoE
_ZN6asmjit7InstAPI13queryFeaturesEjRKNS_8BaseInstEPKNS_8Operand_EyPNS_12BaseFeaturesE
_ZN6asmjit7InstAPI14instIdToStringEjjRNS_6StringE
_ZN6asmjit7InstAPI14stringToInstIdEjPKcy
_ZN6asmjit7InstAPI8validateEjRKNS_8BaseInstEPKNS_8Operand_Eyj
_ZN6asmjit7OSUtils12getTickCountEv
_ZN6asmjit7VirtMem16allocDualMappingEPNS0_11DualMappingEyj
_ZN6asmjit7VirtMem18releaseDualMappingEPNS0_11DualMappingEy
_ZN6asmjit7VirtMem4infoEv
_ZN6asmjit7VirtMem5allocEPPvyj
_ZN6asmjit7VirtMem7protectEPvyj
_ZN6asmjit7VirtMem7releaseEPvy
_ZN6asmjit8CallConv4initEjRKNS_11EnvironmentE
_ZN6asmjit8FuncPass3runEPNS_4ZoneEPNS_6LoggerE
_ZN6asmjit8FuncPassC1EPKc
_ZN6asmjit8FuncPassC2EPKc
_ZN6asmjit9ArchUtils15typeIdToRegInfoEjjPjPNS_7RegInfoE
_ZN6asmjit9ConstPool3addEPKvyRy
_ZN6asmjit9ConstPool5resetEPNS_4ZoneE
_ZN6asmjit9ConstPoolC1EPNS_4ZoneE
_ZN6asmjit9ConstPoolC2EPNS_4ZoneE
_ZN6asmjit9ConstPoolD1Ev
_ZN6asmjit9ConstPoolD2Ev
_ZN6asmjit9Formatter10formatDataERNS_6StringEjjjPKvyy
_ZN6asmjit9Formatter10formatNodeERNS_6StringEjPKNS_11BaseBuilderEPKNS_8BaseNodeE
_ZN6asmjit9Formatter11formatLabelERNS_6StringEjPKNS_11BaseEmitterEj
_ZN6asmjit9Formatter12formatTypeIdERNS_6StringEj
_ZN6asmjit9Formatter13formatFeatureERNS_6StringEjj
_ZN6asmjit9Formatter13formatOperandERNS_6StringEjPKNS_11BaseEmitterEjRKNS_8Operand_E
_ZN6asmjit9Formatter14formatDataTypeERNS_6StringEjjj
_ZN6asmjit9Formatter14formatNodeListERNS_6StringEjPKNS_11BaseBuilderE
_ZN6asmjit9Formatter14formatNodeListERNS_6StringEjPKNS_11BaseBuilderEPKNS_8BaseNodeES8_
_ZN6asmjit9Formatter14formatRegisterERNS_6StringEjPKNS_11BaseEmitterEjjj
_ZN6asmjit9Formatter17formatInstructionERNS_6StringEjPKNS_11BaseEmitterEjRKNS_8BaseInstEPKNS_8Operand_Ey
_ZN6asmjit9FuncFrame4initERKNS_10FuncDetailE
_ZN6asmjit9FuncFrame8finalizeEv
_ZNK6asmjit10CodeHolder13sectionByNameEPKcy
_ZNK6asmjit10CodeHolder8codeSizeEv
_ZNK6asmjit11BaseBuilder10passByNameEPKc
_ZNK6asmjit11BaseEmitter12isLabelValidEj
_ZNK6asmjit11Environment14stackAlignmentEv
_ZNK6asmjit12JitAllocator10statisticsEv
_ZNK6asmjit18FuncArgsAssignment15updateFuncFrameERNS_9FuncFrameE
_ZNK6asmjit6String2eqEPKcy
_ZNK6asmjit9ConstPool4fillEPv
