;
; Definition file of libxbase64.dll
; Automatic generated by gendef
; written by Kai Tietz 2008
;
LIBRARY "libxbase64.dll"
EXPORTS
_Z6printfPKcz
_Z7fprintfP6_iobufPKcz
_Z7sprintfPcPKcz
_ZN10xbNodeLink7AddNodeEPS_
_ZN14xbStackElementC1Ev
_ZN14xbStackElementC2Ev
_ZN14xbStackElementD1Ev
_ZN14xbStackElementD2Ev
_ZN5xbCdx10GetLastKeyEv
_ZN5xbCdx10GetNextKeyEv
_ZN5xbCdx10GetPrevKeyEv
_ZN5xbCdx11CreateIndexEPKcS1_S1_ss
_ZN5xbCdx11CreateIndexEPKcS1_ss
_ZN5xbCdx11DumpHdrNodeEs
_ZN5xbCdx11DumpNodeRecEl
_ZN5xbCdx11GetFirstKeyEv
_ZN5xbCdx11GetHeadNodeEv
_ZN5xbCdx11UniqueIndexEv
_ZN5xbCdx12GetCurDbfRecEv
_ZN5xbCdx12WriteTagRootEPKc
_ZN5xbCdx13DumpNodeChainEv
_ZN5xbCdx13GetCurrentKeyEPc
_ZN5xbCdx13GetExpressionEPci
_ZN5xbCdx13GetExtWithDotEb
_ZN5xbCdx13GetTotalNodesEv
_ZN5xbCdx13KeyWasChangedEv
_ZN5xbCdx13ReadTagHeaderEv
_ZN5xbCdx14WriteIndexRootEv
_ZN5xbCdx14WriteTagHeaderEPKc
_ZN5xbCdx15FreeNodesMemoryEv
_ZN5xbCdx16GetKeyExpressionEv
_ZN5xbCdx16WriteIndexHeaderEPKc
_ZN5xbCdx19CheckIndexIntegrityEs
_ZN5xbCdx6AddKeyEl
_ZN5xbCdx6AddTagEPKcS1_ss
_ZN5xbCdx7FindKeyEPKc
_ZN5xbCdx7FindKeyEd
_ZN5xbCdx7FindKeyEv
_ZN5xbCdx7ReIndexEPFvllE
_ZN5xbCdx9CreateKeyEss
_ZN5xbCdx9DeleteKeyEl
_ZN5xbCdx9GetKeyLenEv
_ZN5xbCdx9KeyExistsEd
_ZN5xbCdxD0Ev
_ZN5xbCdxD1Ev
_ZN5xbDbf10DumpHeaderEs
_ZN5xbDbf10DumpRecordEm
_ZN5xbDbf10IndexCountEv
_ZN5xbDbf10ReadHeaderEs
_ZN5xbDbf10SetVersionEs
_ZN5xbDbf11AddMemoDataEslPKc
_ZN5xbDbf11BlankRecordEv
_ZN5xbDbf11GetFPTFieldEslPcs
_ZN5xbDbf11GetFieldLenEs
_ZN5xbDbf11NoOfRecordsEv
_ZN5xbDbf11OpenFPTFileEv
_ZN5xbDbf11PutMemoDataElllPKc
_ZN5xbDbf11PutRawFieldEPKcS1_
_ZN5xbDbf11PutRawFieldEsPKc
_ZN5xbDbf11WriteHeaderEs
_ZN5xbDbf12AppendRecordEv
_ZN5xbDbf12DeleteRecordEv
_ZN5xbDbf12GetDbtHeaderEs
_ZN5xbDbf12GetFieldNameEs
_ZN5xbDbf12GetMemoFieldEslPcs
_ZN5xbDbf12OpenDatabaseEPKc
_ZN5xbDbf12OpenMemoFileEv
_ZN5xbDbf12PackDatabaseEsPFvllES1_
_ZN5xbDbf12PutLongFieldEPKcl
_ZN5xbDbf12PutLongFieldEsl
_ZN5xbDbf13CloseDatabaseEs
_ZN5xbDbf13GetExtWithDotEb
_ZN5xbDbf13GetFloatFieldEPKc
_ZN5xbDbf13GetFloatFieldEs
_ZN5xbDbf13GetLastRecordEv
_ZN5xbDbf13GetNextRecordEv
_ZN5xbDbf13GetPrevRecordEv
_ZN5xbDbf13PackDatafilesEPFvllE
_ZN5xbDbf13PutFloatFieldEPKcf
_ZN5xbDbf13PutFloatFieldEsf
_ZN5xbDbf13ReadMemoBlockEls
_ZN5xbDbf13RecordDeletedEv
_ZN5xbDbf14CreateDatabaseEPKcP8xbSchemas
_ZN5xbDbf14CreateMemoFileEv
_ZN5xbDbf14GetDoubleFieldEPKc
_ZN5xbDbf14GetDoubleFieldEss
_ZN5xbDbf14GetFPTFieldLenEs
_ZN5xbDbf14GetFirstRecordEv
_ZN5xbDbf14GetStringFieldEPKc
_ZN5xbDbf14GetStringFieldEs
_ZN5xbDbf14PutDoubleFieldEPKcd
_ZN5xbDbf14PutDoubleFieldEsd
_ZN5xbDbf14UndeleteRecordEv
_ZN5xbDbf14UpdateMemoDataEslPKcs
_ZN5xbDbf14WriteMemoBlockEls
_ZN5xbDbf15DeleteMemoFieldEs
_ZN5xbDbf15GetFieldDecimalEs
_ZN5xbDbf15GetLogicalFieldEPKc
_ZN5xbDbf15GetLogicalFieldEs
_ZN5xbDbf15GetMemoFieldLenEs
_ZN5xbDbf16AddIndexToIxListEP7xbIndexPKc
_ZN5xbDbf16CopyDbfStructureEPKcs
_ZN5xbDbf16SetMemoBlockSizeEs
_ZN5xbDbf16ValidLogicalDataEPKc
_ZN5xbDbf16ValidNumericDataEPKc
_ZN5xbDbf17CalcLastDataBlockEv
_ZN5xbDbf17DumpMemoFreeChainEv
_ZN5xbDbf17NameSuffixMissingEsPKc
_ZN5xbDbf17RebuildAllIndicesEPFvllE
_ZN5xbDbf19CreateUniqueDbfNameER8xbStringS1_
_ZN5xbDbf19FindBlockSetInChainEllRlS0_
_ZN5xbDbf19PhysicalNoOfRecordsEv
_ZN5xbDbf20GetBlockSetFromChainElll
_ZN5xbDbf21RemoveIndexFromIxListEP7xbIndex
_ZN5xbDbf3ZapEs
_ZN5xbDbf5FlushEv
_ZN5xbDbf8GetIndexEs
_ZN5xbDbf8InitVarsEv
_ZN5xbDbf8PutFieldEPKcS1_
_ZN5xbDbf8PutFieldEsPKc
_ZN5xbDbf9DeleteAllEs
_ZN5xbDbf9GetRecordEm
_ZN5xbDbf9PutRecordEm
_ZN5xbDbf9PutRecordEv
_ZN5xbDbfC1EP7xbXBase
_ZN5xbDbfC2EP7xbXBase
_ZN5xbDbfD0Ev
_ZN5xbDbfD1Ev
_ZN5xbDbfD2Ev
_ZN5xbNdx10CalcKeyLenEv
_ZN5xbNdx10GetKeyDataEsP13xbNdxNodeLink
_ZN5xbNdx10GetLastKeyEls
_ZN5xbNdx10GetLastKeyEv
_ZN5xbNdx10GetNextKeyEs
_ZN5xbNdx10GetNextKeyEv
_ZN5xbNdx10GetPrevKeyEs
_ZN5xbNdx10GetPrevKeyEv
_ZN5xbNdx10PutKeyDataEsP13xbNdxNodeLink
_ZN5xbNdx10SplitINodeEP13xbNdxNodeLinkS1_l
_ZN5xbNdx11BSearchNodeEPKcsPK13xbNdxNodeLinkPs
_ZN5xbNdx11CreateIndexEPKcS1_ss
_ZN5xbNdx11DumpHdrNodeEs
_ZN5xbNdx11DumpNodeRecEl
_ZN5xbNdx11GetFirstKeyEs
_ZN5xbNdx11GetFirstKeyEv
_ZN5xbNdx11GetHeadNodeEv
_ZN5xbNdx11GetLeafNodeEls
_ZN5xbNdx11PutHeadNodeEP13xbNdxHeadNodeP6_iobufs
_ZN5xbNdx11PutLeafNodeElP13xbNdxNodeLink
_ZN5xbNdx11SetNodeSizeEs
_ZN5xbNdx11UniqueIndexEv
_ZN5xbNdx12GetCurDbfRecEv
_ZN5xbNdx12PutKeyInNodeEP13xbNdxNodeLinkslls
_ZN5xbNdx13DeleteSiblingEP13xbNdxNodeLink
_ZN5xbNdx13DumpNodeChainEv
_ZN5xbNdx13GetCurrentKeyEPc
_ZN5xbNdx13GetExpressionEPci
_ZN5xbNdx13GetExtWithDotEb
_ZN5xbNdx13GetLeftNodeNoEsP13xbNdxNodeLink
_ZN5xbNdx13GetNodeMemoryEv
_ZN5xbNdx13GetTotalNodesEv
_ZN5xbNdx13KeyWasChangedEv
_ZN5xbNdx13PutLeftNodeNoEsP13xbNdxNodeLinkl
_ZN5xbNdx13SplitLeafNodeEP13xbNdxNodeLinkS1_sl
_ZN5xbNdx14GetKeysPerNodeEv
_ZN5xbNdx14MoveToLeftNodeEP13xbNdxNodeLinkS1_
_ZN5xbNdx15FreeNodesMemoryEv
_ZN5xbNdx15MoveToRightNodeEP13xbNdxNodeLinkS1_
_ZN5xbNdx15UpdateParentKeyEP13xbNdxNodeLink
_ZN5xbNdx16GetKeyExpressionEv
_ZN5xbNdx16UpdateDeleteListEP13xbNdxNodeLink
_ZN5xbNdx17ProcessDeleteListEv
_ZN5xbNdx17ReleaseNodeMemoryEP13xbNdxNodeLinks
_ZN5xbNdx17RemoveKeyFromNodeEsP13xbNdxNodeLink
_ZN5xbNdx19CheckIndexIntegrityEs
_ZN5xbNdx19LeftSiblingHasSpaceEP13xbNdxNodeLink
_ZN5xbNdx20RightSiblingHasSpaceEP13xbNdxNodeLink
_ZN5xbNdx23GetLeafFromInteriorNodeEPKcs
_ZN5xbNdx6AddKeyEl
_ZN5xbNdx7FindKeyEPKc
_ZN5xbNdx7FindKeyEPKcl
_ZN5xbNdx7FindKeyEPKcss
_ZN5xbNdx7FindKeyEd
_ZN5xbNdx7FindKeyEv
_ZN5xbNdx7ReIndexEPFvllE
_ZN5xbNdx8PutDbfNoEsP13xbNdxNodeLinkl
_ZN5xbNdx9CreateKeyEss
_ZN5xbNdx9DeleteKeyEl
_ZN5xbNdx9GetKeyLenEv
_ZN5xbNdx9KeyExistsEd
_ZN5xbNdxC1EP5xbDbf
_ZN5xbNdxC1Ev
_ZN5xbNdxC2EP5xbDbf
_ZN5xbNdxC2Ev
_ZN5xbNdxD0Ev
_ZN5xbNdxD1Ev
_ZN5xbNdxD2Ev
_ZN5xbNtx10CalcKeyLenEv
_ZN5xbNtx10CompareKeyEPKcS1_
_ZN5xbNtx10CompareKeyEPKcS1_s
_ZN5xbNtx10GetKeyDataEsP10xbNodeLink
_ZN5xbNtx10GetLastKeyEls
_ZN5xbNtx10GetLastKeyEv
_ZN5xbNtx10GetNextKeyEs
_ZN5xbNtx10GetNextKeyEv
_ZN5xbNtx10GetPrevKeyEs
_ZN5xbNtx10GetPrevKeyEv
_ZN5xbNtx10PutKeyDataEsP10xbNodeLink
_ZN5xbNtx10SplitINodeEP10xbNodeLinkS1_l
_ZN5xbNtx10TouchIndexEv
_ZN5xbNtx11CreateIndexEPKcS1_ss
_ZN5xbNtx11DumpHdrNodeEs
_ZN5xbNtx11DumpNodeRecEl
_ZN5xbNtx11GetFirstKeyEs
_ZN5xbNtx11GetFirstKeyEv
_ZN5xbNtx11GetHeadNodeEv
_ZN5xbNtx11GetLeafNodeEls
_ZN5xbNtx11PutHeadNodeEP11NtxHeadNodeP6_iobufs
_ZN5xbNtx11PutLeafNodeElP10xbNodeLink
_ZN5xbNtx11UniqueIndexEv
_ZN5xbNtx12GetCurDbfRecEv
_ZN5xbNtx12JoinSiblingsEP10xbNodeLinksS1_S1_
_ZN5xbNtx12PutKeyInNodeEP10xbNodeLinkslls
_ZN5xbNtx13DumpNodeChainEv
_ZN5xbNtx13GetCurrentKeyEPc
_ZN5xbNtx13GetExpressionEPci
_ZN5xbNtx13GetExtWithDotEb
_ZN5xbNtx13GetItemOffsetEsP10xbNodeLinks
_ZN5xbNtx13GetLeftNodeNoEsP10xbNodeLink
_ZN5xbNtx13GetNextNodeNoEv
_ZN5xbNtx13GetNodeMemoryEv
_ZN5xbNtx13GetTotalNodesEv
_ZN5xbNtx13KeyWasChangedEv
_ZN5xbNtx13PutLeftNodeNoEsP10xbNodeLinkl
_ZN5xbNtx13SplitLeafNodeEP10xbNodeLinkS1_sl
_ZN5xbNtx14GetKeysPerNodeEv
_ZN5xbNtx15DeleteKeyOffsetEsP10xbNodeLink
_ZN5xbNtx15FreeNodesMemoryEv
_ZN5xbNtx15InsertKeyOffsetEsP10xbNodeLink
_ZN5xbNtx15UpdateParentKeyEP10xbNodeLink
_ZN5xbNtx16GetKeyExpressionEv
_ZN5xbNtx16UpdateDeleteListEP10xbNodeLink
_ZN5xbNtx17DeleteKeyFromNodeEsP10xbNodeLink
_ZN5xbNtx17ProcessDeleteListEv
_ZN5xbNtx17ReleaseNodeMemoryEP10xbNodeLinks
_ZN5xbNtx17RemoveKeyFromNodeEsP10xbNodeLink
_ZN5xbNtx19CheckIndexIntegrityEs
_ZN5xbNtx23GetLeafFromInteriorNodeEPKcs
_ZN5xbNtx6AddKeyEl
_ZN5xbNtx7FindKeyEPKc
_ZN5xbNtx7FindKeyEPKcl
_ZN5xbNtx7FindKeyEPKcss
_ZN5xbNtx7FindKeyEd
_ZN5xbNtx7FindKeyEv
_ZN5xbNtx7ReIndexEPFvllE
_ZN5xbNtx8GetDbfNoEsP10xbNodeLink
_ZN5xbNtx8PutDbfNoEsP10xbNodeLinkl
_ZN5xbNtx9CreateKeyEss
_ZN5xbNtx9DeleteKeyEl
_ZN5xbNtx9GetKeyLenEv
_ZN5xbNtx9KeyExistsEd
_ZN5xbNtxC1EP5xbDbf
_ZN5xbNtxC1Ev
_ZN5xbNtxC2EP5xbDbf
_ZN5xbNtxC2Ev
_ZN5xbNtxD0Ev
_ZN5xbNtxD1Ev
_ZN5xbNtxD2Ev
_ZN6xbDate10FormatDateEPKcS1_
_ZN6xbDate10JulToDate8El
_ZN6xbDate11CharMonthOfEPKc
_ZN6xbDate12DaysInMonthsE DATA
_ZN6xbDate13SetDateTablesEv
_ZN6xbDate14FormatCTODdateEPKc
_ZN6xbDate14LastDayOfMonthEPKc
_ZN6xbDate22AggregatedDaysInMonthsE DATA
_ZN6xbDate7SetDateEPKc
_ZN6xbDate7SysdateEv
_ZN6xbDate9CharDayOfEPKc
_ZN6xbDateC1EPKc
_ZN6xbDateC1ERK8xbString
_ZN6xbDateC1Ev
_ZN6xbDateC2EPKc
_ZN6xbDateC2ERK8xbString
_ZN6xbDateC2Ev
_ZN6xbDateD0Ev
_ZN6xbDateD1Ev
_ZN6xbDateD2Ev
_ZN6xbDatemIEi
_ZN6xbDatemiEi
_ZN6xbDatemmEi
_ZN6xbDatepLEi
_ZN6xbDateplEi
_ZN6xbDateppEi
_ZN6xbExpn11DumpExpNodeEP9xbExpNodes
_ZN6xbExpn11GetFuncInfoEPKcs
_ZN6xbExpn11IsSeparatorEc
_ZN6xbExpn11LoadExpNodeEPKccss
_ZN6xbExpn12GetIntResultEv
_ZN6xbExpn12GetNextTokenEPKcs
_ZN6xbExpn12IsWhiteSpaceEc
_ZN6xbExpn14AlphaOperationEPc
_ZN6xbExpn14GetOperandTypeEP9xbExpNode
_ZN6xbExpn14OperatorWeightEPKcs
_ZN6xbExpn14ReduceFunctionEPKcP9xbExpNodeP5xbDbf
_ZN6xbExpn14ValidOperationEPccc
_ZN6xbExpn15GetDoubleResultEv
_ZN6xbExpn15GetNextTreeNodeEP9xbExpNode
_ZN6xbExpn15GetStringResultEv
_ZN6xbExpn15ParseExpressionEPKcP5xbDbf
_ZN6xbExpn15ProcessFunctionEPc
_ZN6xbExpn15ProcessOperatorEs
_ZN6xbExpn16GetFirstTreeNodeEP9xbExpNode
_ZN6xbExpn16NumericOperationEPc
_ZN6xbExpn17ProcessExpressionEP9xbExpNode
_ZN6xbExpn17ProcessExpressionEP9xbExpNodes
_ZN6xbExpn17ProcessExpressionEPKcP5xbDbf
_ZN6xbExpn18DumpExpressionTreeEP9xbExpNodes
_ZN6xbExpn19BuildExpressionTreeEPKcsP5xbDbf
_ZN6xbExpn19GetExpressionHandleEv
_ZN6xbExpn19GetFunctionTokenLenEPKc
_ZN6xbExpn23GetExpressionResultTypeEP9xbExpNode
_ZN6xbExpn23ReduceComplexExpressionEPKcsP9xbExpNodeP5xbDbf
_ZN6xbExpn2ATEPKcS1_
_ZN6xbExpn3ABSEd
_ZN6xbExpn3ASCEPKc
_ZN6xbExpn3CHREl
_ZN6xbExpn3DAYEPKc
_ZN6xbExpn3DOWEPKc
_ZN6xbExpn3EXPEd
_ZN6xbExpn3IIFEsPKcS1_
_ZN6xbExpn3INTEd
_ZN6xbExpn3LENEPKc
_ZN6xbExpn3LOGEd
_ZN6xbExpn3MAXEdd
_ZN6xbExpn3MINEdd
_ZN6xbExpn3PopEv
_ZN6xbExpn3STREPKc
_ZN6xbExpn3STREPKcs
_ZN6xbExpn3STREPKcss
_ZN6xbExpn3STREd
_ZN6xbExpn3STREds
_ZN6xbExpn3STREdts
_ZN6xbExpn3VALEPKc
_ZN6xbExpn4CDOWEPKc
_ZN6xbExpn4CTODEPKc
_ZN6xbExpn4DATEEv
_ZN6xbExpn4DTOCEPKc
_ZN6xbExpn4DTOSEPKc
_ZN6xbExpn4LEFTEPKcs
_ZN6xbExpn4PushEP9xbExpNode
_ZN6xbExpn4SQRTEd
_ZN6xbExpn4TRIMEPKc
_ZN6xbExpn4YEAREPKc
_ZN6xbExpn5LOWEREPKc
_ZN6xbExpn5LTRIMEPKc
_ZN6xbExpn5MONTHEPKc
_ZN6xbExpn5RECNOEP5xbDbf
_ZN6xbExpn5RIGHTEPKcs
_ZN6xbExpn5RTRIMEPKc
_ZN6xbExpn5SPACEEs
_ZN6xbExpn5UPPEREPKc
_ZN6xbExpn6CMONTHEPKc
_ZN6xbExpn6GetIntEP9xbExpNode
_ZN6xbExpn6SUBSTREPKcss
_ZN6xbExpn7DESCENDEPKc
_ZN6xbExpn7DESCENDERK6xbDate
_ZN6xbExpn7DESCENDEd
_ZN6xbExpn7GetDoubEP9xbExpNode
_ZN6xbExpn7ISALPHAEPKc
_ZN6xbExpn7ISLOWEREPKc
_ZN6xbExpn7ISUPPEREPKc
_ZN6xbExpn7STRZEROEPKc
_ZN6xbExpn7STRZEROEPKcs
_ZN6xbExpn7STRZEROEPKcss
_ZN6xbExpn7STRZEROEd
_ZN6xbExpn7STRZEROEds
_ZN6xbExpn7STRZEROEdss
_ZN6xbExpn9DumpStackEv
_ZN6xbExpn9InitStackEv
_ZN6xbExpn9REPLICATEEPKcs
_ZN6xbExpnC1EP7xbXBase
_ZN6xbExpnC2EP7xbXBase
_ZN6xbExpnD0Ev
_ZN6xbExpnD1Ev
_ZN6xbExpnD2Ev
_ZN6xbFile12MakeFileNameEPKc
_ZN7xbIndex10CloseIndexEv
_ZN7xbIndex10TouchIndexEv
_ZN7xbIndex11GetNodeSizeEv
_ZN7xbIndex11SetNodeSizeEs
_ZN7xbIndex12AllocKeyBufsEv
_ZN7xbIndex5FlushEv
_ZN7xbIndex9GetIxNameEv
_ZN7xbIndex9OpenIndexEPKc
_ZN7xbIndexC1EP5xbDbf
_ZN7xbIndexC2EP5xbDbf
_ZN7xbIndexD0Ev
_ZN7xbIndexD1Ev
_ZN7xbIndexD2Ev
_ZN7xbXBase11GetHBFShortEPKc
_ZN7xbXBase11GetHBFULongEPKc
_ZN7xbXBase15AddDbfToDbfListEP5xbDbfPKc
_ZN7xbXBase15GetErrorMessageEs
_ZN7xbXBase20RemoveDbfFromDbfListEP5xbDbf
_ZN7xbXBase21DirectoryExistsInNameEPKc
_ZN7xbXBase7GetLongEPKc
_ZN7xbXBase7PutLongEPcl
_ZN7xbXBase8GetShortEPKc
_ZN7xbXBase8GetULongEPKc
_ZN7xbXBase8PutShortEPcs
_ZN7xbXBase8PutULongEPcm
_ZN7xbXBase9GetDbfPtrEPKc
_ZN7xbXBase9GetDoubleEPKc
_ZN7xbXBase9PutDoubleEPcd
_ZN7xbXBase9PutUShortEPct
_ZN7xbXBaseC1Ev
_ZN7xbXBaseC2Ev
_ZN7xbXBaseD1Ev
_ZN7xbXBaseD2Ev
_ZN8xbFilter16GetLastFilterRecEv
_ZN8xbFilter16GetNextFilterRecEv
_ZN8xbFilter16GetPrevFilterRecEv
_ZN8xbFilter17GetFirstFilterRecEv
_ZN8xbFilterC1EP5xbDbfP7xbIndexPc
_ZN8xbFilterC2EP5xbDbfP7xbIndexPc
_ZN8xbFilterD0Ev
_ZN8xbFilterD1Ev
_ZN8xbFilterD2Ev
_ZN8xbString10NullStringE DATA
_ZN8xbString10cvtHexCharERc
_ZN8xbString11toLowerCaseEv
_ZN8xbString11toUpperCaseEv
_ZN8xbString12addBackSlashEc
_ZN8xbString12cvtHexStringERS_
_ZN8xbString14zapLeadingCharEc
_ZN8xbString21setFromDelimitedInputEPKccii
_ZN8xbString3posEPKc
_ZN8xbString3posEc
_ZN8xbString4ctorEPKc
_ZN8xbString4ctorEPKcy
_ZN8xbString4trimEv
_ZN8xbString5putAtEyc
_ZN8xbString6assignEPci
_ZN8xbString6assignERKS_yi
_ZN8xbString6lTruncEy
_ZN8xbString6removeEyi
_ZN8xbString6resizeEy
_ZN8xbString6setNumEPcd
_ZN8xbString6setNumEl
_ZN8xbString7sprintfEPKcz
_ZN8xbString7zapCharEc
_ZN8xbString9swapCharsEcc
_ZN8xbStringC1EPKc
_ZN8xbStringC1EPKcy
_ZN8xbStringC1ERKS_
_ZN8xbStringC1Ec
_ZN8xbStringC1Ev
_ZN8xbStringC1Ey
_ZN8xbStringC2EPKc
_ZN8xbStringC2EPKcy
_ZN8xbStringC2ERKS_
_ZN8xbStringC2Ec
_ZN8xbStringC2Ev
_ZN8xbStringC2Ey
_ZN8xbStringD0Ev
_ZN8xbStringD1Ev
_ZN8xbStringD2Ev
_ZN8xbStringaSEPKc
_ZN8xbStringaSERKS_
_ZN8xbStringaSEc
_ZN8xbStringmIEPKc
_ZN8xbStringpLEPKc
_ZN8xbStringpLEc
_ZN9xbExpNodeC1Ev
_ZN9xbExpNodeC2Ev
_ZN9xbExpNodeD0Ev
_ZN9xbExpNodeD1Ev
_ZN9xbExpNodeD2Ev
_ZNK5xbDbf10GetFieldNoEPKc
_ZNK5xbDbf11GetRawFieldEPKcPc
_ZNK5xbDbf11GetRawFieldEsPc
_ZNK5xbDbf12GetFieldTypeEs
_ZNK5xbDbf12GetLongFieldEPKc
_ZNK5xbDbf12GetLongFieldEs
_ZNK5xbDbf13DumpMemoBlockEv
_ZNK5xbDbf14DumpMemoHeaderEv
_ZNK5xbDbf15MemoFieldExistsEs
_ZNK5xbDbf17MemoFieldsPresentEv
_ZNK5xbDbf18UpdateHeadNextNodeEv
_ZNK5xbDbf8GetFieldEPKc
_ZNK5xbDbf8GetFieldEPKcPc
_ZNK5xbDbf8GetFieldEPKcPcs
_ZNK5xbDbf8GetFieldEs
_ZNK5xbDbf8GetFieldEsPc
_ZNK5xbDbf8GetFieldEsPcs
_ZNK5xbDbf8GetFieldEsR8xbStrings
_ZNK6xbDate10IsLeapYearEPKc
_ZNK6xbDate10JulianDaysEPKc
_ZNK6xbDate11DateIsValidEPKc
_ZNK6xbDate25CalcRollingCenturyForYearEi
_ZNK6xbDate5DayOfEiPKc
_ZNK6xbDate6YearOfEPKc
_ZNK6xbDate7MonthOfEPKc
_ZNK6xbDate9CenturyOfEPKc
_ZNK6xbDateeqERKS_
_ZNK6xbDategeERKS_
_ZNK6xbDategtERKS_
_ZNK6xbDateleERKS_
_ZNK6xbDateltERKS_
_ZNK6xbDatemiERKS_
_ZNK6xbDateneERKS_
_ZNK7xbXBase12DisplayErrorEs
_ZNK8xbString13hasAlphaCharsEv
_ZNK8xbString3lenEv
_ZNK8xbString3midEyi
_ZNK8xbString4copyEv
_ZNK8xbString5c_strEv
_ZNK8xbString6isNullEv
_ZNK8xbString6lengthEv
_ZNK8xbString7getDataEv
_ZNK8xbString7isEmptyEv
_ZNK8xbString9countCharEc
_ZNK8xbStringcvPKcEv
_ZNK8xbStringeqERKS_
_ZNK8xbStringgeERKS_
_ZNK8xbStringgtERKS_
_ZNK8xbStringleERKS_
_ZNK8xbStringltERKS_
_ZNK8xbStringneERKS_
_ZNKSt5ctypeIcE8do_widenEc
_ZTI12xbMultiIndex DATA
_ZTI5xbCdx DATA
_ZTI5xbDbf DATA
_ZTI5xbNdx DATA
_ZTI5xbNtx DATA
_ZTI6xbDate DATA
_ZTI6xbExpn DATA
_ZTI6xbFile DATA
_ZTI7xbIndex DATA
_ZTI8xbFilter DATA
_ZTI8xbString DATA
_ZTI9xbExpNode DATA
_ZTS12xbMultiIndex DATA
_ZTS5xbCdx DATA
_ZTS5xbDbf DATA
_ZTS5xbNdx DATA
_ZTS5xbNtx DATA
_ZTS6xbDate DATA
_ZTS6xbExpn DATA
_ZTS6xbFile DATA
_ZTS7xbIndex DATA
_ZTS8xbFilter DATA
_ZTS8xbString DATA
_ZTS9xbExpNode DATA
_ZTV12xbMultiIndex DATA
_ZTV5xbCdx DATA
_ZTV5xbDbf DATA
_ZTV5xbNdx DATA
_ZTV5xbNtx DATA
_ZTV6xbDate DATA
_ZTV6xbExpn DATA
_ZTV6xbFile DATA
_ZTV7xbIndex DATA
_ZTV8xbFilter DATA
_ZTV8xbString DATA
_ZTV9xbExpNode DATA
_ZeqRK8xbStringPKc
_ZlsRSoRK8xbString
_ZmiRK8xbStringS1_
_ZneRK8xbStringPKc
_ZplPKcRK8xbString
_ZplRK8xbStringPKc
_ZplRK8xbStringS1_
_ZplRK8xbStringc
_ZplcRK8xbString
